; Function Attrs: mustprogress uwtable
define void @_ZN8LightGBM28GetBoostingTypeFromModelFileB5cxx11EPKc(ptr dead_on_unwind noalias writable sret(%"class.std::__cxx11::basic_string") align 8 %0, ptr noundef %1) local_unnamed_addr #3 personality ptr @__gxx_personality_v0 {
  %3 = alloca %"class.LightGBM::TextReader", align 8
  call void @_ZN8LightGBM10TextReaderImEC2EPKcbm(ptr noundef nonnull align 8 dereferenceable(116) %3, ptr noundef %1, i1 noundef zeroext true, i64 noundef -1)
  %4 = getelementptr inbounds i8, ptr %3, i64 64
  invoke void @_ZNSt7__cxx1112basic_stringIcSt11char_traitsIcESaIcEEC1ERKS4_(ptr noundef nonnull align 8 dereferenceable(32) %0, ptr noundef nonnull align 8 dereferenceable(32) %4)
          to label %_ZN8LightGBM10TextReaderImE10first_lineB5cxx11Ev.exit unwind label %5

5:                                                ; preds = %2
  %6 = landingpad { ptr, i32 }
          cleanup
  call void @_ZN8LightGBM10TextReaderImED2Ev(ptr noundef nonnull align 8 dereferenceable(116) %3) #15
  resume { ptr, i32 } %6

_ZN8LightGBM10TextReaderImE10first_lineB5cxx11Ev.exit: ; preds = %2
  call void @_ZN8LightGBM10TextReaderImED2Ev(ptr noundef nonnull align 8 dereferenceable(116) %3) #15
  ret void
}